target datalayout = "e-m:e-p270:32:32-p271:32:32-p272:64:64-i64:64-i128:128-f80:128-n8:16:32:64-S128"
target triple = "x86_64-unknown-linux-gnu"

%class.btMultiBodyConstraint = type { ptr, ptr, ptr, i32, i32, i32, i32, i32, i32, i32, i8, i32, float, %class.btAlignedObjectArray }
%class.btAlignedObjectArray = type <{ %class.btAlignedAllocator, [3 x i8], i32, i32, [4 x i8], ptr, i8, [7 x i8] }>
%class.btAlignedAllocator = type { i8 }

; Function Attrs: mustprogress uwtable
define dso_local void @_ZN25btMultiBodyGearConstraint16finalizeMultiDofEv(ptr noundef nonnull align 8 dereferenceable(256) %this) unnamed_addr #2 align 2 {
entry:
  %this.addr = alloca ptr, align 8
  store ptr %this, ptr %this.addr, align 8
  %this1 = load ptr, ptr %this.addr, align 8
  call void @_ZN21btMultiBodyConstraint25allocateJacobiansMultiDofEv(ptr noundef nonnull align 8 dereferenceable(96) %this1)
  %m_jacSizeBoth = getelementptr inbounds %class.btMultiBodyConstraint, ptr %this1, i32 0, i32 8
  %0 = load i32, ptr %m_jacSizeBoth, align 4
  %m_numDofsFinalized = getelementptr inbounds %class.btMultiBodyConstraint, ptr %this1, i32 0, i32 11
  store i32 %0, ptr %m_numDofsFinalized, align 8
  ret void
}