; Function Attrs: mustprogress uwtable
define dso_local void @_ZN25btMultiBodyGearConstraint16finalizeMultiDofEv(ptr noundef nonnull align 8 dereferenceable(256) %this) unnamed_addr #0 align 2 {
entry:
  tail call void @_ZN21btMultiBodyConstraint25allocateJacobiansMultiDofEv(ptr noundef nonnull align 8 dereferenceable(96) %this)
  %m_jacSizeBoth = getelementptr inbounds i8, ptr %this, i64 44
  %0 = load i32, ptr %m_jacSizeBoth, align 4
  %m_numDofsFinalized = getelementptr inbounds i8, ptr %this, i64 56
  store i32 %0, ptr %m_numDofsFinalized, align 8
  ret void
}